; Function Attrs: mustprogress uwtable
define internal void @_ZN6libcpp12_GLOBAL__N_126internal_ftm_use_callbacks6IfndefEN5clang14SourceLocationERKNS2_5TokenERKNS2_15MacroDefinitionE(ptr noundef nonnull readonly align 8 captures(none) dereferenceable(16) %0, i32 %1, ptr noundef nonnull readonly align 8 captures(none) dereferenceable(20) %2, ptr nonnull readnone align 8 captures(none) %3) unnamed_addr #3 align 2 {
_ZNK5clang5Token17getIdentifierInfoEv.exit:
  %4 = getelementptr inbounds nuw i8, ptr %2, i64 8
  %5 = load ptr, ptr %4, align 8, !tbaa !33
  %6 = getelementptr inbounds nuw i8, ptr %5, i64 16
  %7 = load ptr, ptr %6, align 8, !tbaa !38
  %8 = getelementptr inbounds nuw i8, ptr %7, i64 16
  %9 = load i64, ptr %7, align 8, !tbaa !41
  %10 = and i64 %9, 4294967295
  %11 = getelementptr inbounds nuw i8, ptr %0, i64 8
  %.val = load ptr, ptr %11, align 8
  tail call fastcc void @_ZN6libcpp12_GLOBAL__N_126internal_ftm_use_callbacks11check_macroESt17basic_string_viewIcSt11char_traitsIcEEN5clang14SourceLocationE(ptr %.val, i64 %10, ptr nonnull %8, i32 %1)
  ret void
}